target datalayout = "e-m:e-p270:32:32-p271:32:32-p272:64:64-i64:64-i128:128-f80:128-n8:16:32:64-S128"
target triple = "x86_64-pc-linux-gnu"

; Function Attrs: nounwind uwtable
define internal void @ac3_exponent_min_c(ptr noundef %0, i32 noundef %1, i32 noundef %2) #0 {
  %4 = alloca ptr, align 8
  %5 = alloca i32, align 4
  %6 = alloca i32, align 4
  %7 = alloca i32, align 4
  %8 = alloca i32, align 4
  %9 = alloca i32, align 4
  %10 = alloca i8, align 1
  %11 = alloca ptr, align 8
  %12 = alloca i8, align 1
  store ptr %0, ptr %4, align 8, !tbaa !56
  store i32 %1, ptr %5, align 4, !tbaa !14
  store i32 %2, ptr %6, align 4, !tbaa !14
  call void @llvm.lifetime.start.p0(i64 4, ptr %7) #6
  call void @llvm.lifetime.start.p0(i64 4, ptr %8) #6
  %13 = load i32, ptr %5, align 4, !tbaa !14
  %14 = icmp ne i32 %13, 0
  br i1 %14, label %16, label %15

15:                                               ; preds = %3
  store i32 1, ptr %9, align 4
  br label %54

16:                                               ; preds = %3
  store i32 0, ptr %8, align 4, !tbaa !14
  br label %17

17:                                               ; preds = %50, %16
  %18 = load i32, ptr %8, align 4, !tbaa !14
  %19 = load i32, ptr %6, align 4, !tbaa !14
  %20 = icmp slt i32 %18, %19
  br i1 %20, label %21, label %53

21:                                               ; preds = %17
  call void @llvm.lifetime.start.p0(i64 1, ptr %10) #6
  %22 = load ptr, ptr %4, align 8, !tbaa !56
  %23 = load i8, ptr %22, align 1, !tbaa !58
  store i8 %23, ptr %10, align 1, !tbaa !58
  call void @llvm.lifetime.start.p0(i64 8, ptr %11) #6
  %24 = load ptr, ptr %4, align 8, !tbaa !56
  %25 = getelementptr inbounds i8, ptr %24, i64 256
  store ptr %25, ptr %11, align 8, !tbaa !56
  store i32 0, ptr %7, align 4, !tbaa !14
  br label %26

26:                                               ; preds = %43, %21
  %27 = load i32, ptr %7, align 4, !tbaa !14
  %28 = load i32, ptr %5, align 4, !tbaa !14
  %29 = icmp slt i32 %27, %28
  br i1 %29, label %30, label %46

30:                                               ; preds = %26
  call void @llvm.lifetime.start.p0(i64 1, ptr %12) #6
  %31 = load ptr, ptr %11, align 8, !tbaa !56
  %32 = load i8, ptr %31, align 1, !tbaa !58
  store i8 %32, ptr %12, align 1, !tbaa !58
  %33 = load i8, ptr %12, align 1, !tbaa !58
  %34 = zext i8 %33 to i32
  %35 = load i8, ptr %10, align 1, !tbaa !58
  %36 = zext i8 %35 to i32
  %37 = icmp slt i32 %34, %36
  br i1 %37, label %38, label %40

38:                                               ; preds = %30
  %39 = load i8, ptr %12, align 1, !tbaa !58
  store i8 %39, ptr %10, align 1, !tbaa !58
  br label %40

40:                                               ; preds = %38, %30
  %41 = load ptr, ptr %11, align 8, !tbaa !56
  %42 = getelementptr inbounds i8, ptr %41, i64 256
  store ptr %42, ptr %11, align 8, !tbaa !56
  call void @llvm.lifetime.end.p0(i64 1, ptr %12) #6
  br label %43

43:                                               ; preds = %40
  %44 = load i32, ptr %7, align 4, !tbaa !14
  %45 = add nsw i32 %44, 1
  store i32 %45, ptr %7, align 4, !tbaa !14
  br label %26, !llvm.loop !59

46:                                               ; preds = %26
  %47 = load i8, ptr %10, align 1, !tbaa !58
  %48 = load ptr, ptr %4, align 8, !tbaa !56
  %49 = getelementptr inbounds nuw i8, ptr %48, i32 1
  store ptr %49, ptr %4, align 8, !tbaa !56
  store i8 %47, ptr %48, align 1, !tbaa !58
  call void @llvm.lifetime.end.p0(i64 8, ptr %11) #6
  call void @llvm.lifetime.end.p0(i64 1, ptr %10) #6
  br label %50

50:                                               ; preds = %46
  %51 = load i32, ptr %8, align 4, !tbaa !14
  %52 = add nsw i32 %51, 1
  store i32 %52, ptr %8, align 4, !tbaa !14
  br label %17, !llvm.loop !60

53:                                               ; preds = %17
  store i32 0, ptr %9, align 4
  br label %54

54:                                               ; preds = %53, %15
  call void @llvm.lifetime.end.p0(i64 4, ptr %8) #6
  call void @llvm.lifetime.end.p0(i64 4, ptr %7) #6
  %55 = load i32, ptr %9, align 4
  switch i32 %55, label %57 [
    i32 0, label %56
    i32 1, label %56
  ]

56:                                               ; preds = %54, %54
  ret void

57:                                               ; preds = %54
  unreachable
}