; Function Attrs: nofree norecurse nosync nounwind memory(argmem: readwrite) uwtable
define internal void @ac3_exponent_min_c(ptr noundef captures(none) %0, i32 noundef %1, i32 noundef %2) #3 {
  %4 = icmp sgt i32 %2, 0
  %5 = icmp sgt i32 %1, 0
  %or.cond28 = and i1 %5, %4
  br i1 %or.cond28, label %.lr.ph.us, label %.loopexit

.lr.ph.us:                                        ; preds = %3, %._crit_edge.us
  %.024.us = phi ptr [ %10, %._crit_edge.us ], [ %0, %3 ]
  %.01723.us = phi i32 [ %11, %._crit_edge.us ], [ 0, %3 ]
  %6 = load i8, ptr %.024.us, align 1, !tbaa !45
  br label %7

7:                                                ; preds = %.lr.ph.us, %7
  %.0.pn22.us = phi ptr [ %.024.us, %.lr.ph.us ], [ %.015.us, %7 ]
  %.01621.us = phi i8 [ %6, %.lr.ph.us ], [ %spec.select.us, %7 ]
  %.01820.us = phi i32 [ 0, %.lr.ph.us ], [ %9, %7 ]
  %.015.us = getelementptr inbounds nuw i8, ptr %.0.pn22.us, i64 256
  %8 = load i8, ptr %.015.us, align 1, !tbaa !45
  %spec.select.us = tail call i8 @llvm.umin.i8(i8 %8, i8 %.01621.us)
  %9 = add nuw nsw i32 %.01820.us, 1
  %exitcond.not = icmp eq i32 %9, %1
  br i1 %exitcond.not, label %._crit_edge.us, label %7, !llvm.loop !46

._crit_edge.us:                                   ; preds = %7
  %10 = getelementptr inbounds nuw i8, ptr %.024.us, i64 1
  store i8 %spec.select.us, ptr %.024.us, align 1, !tbaa !45
  %11 = add nuw nsw i32 %.01723.us, 1
  %exitcond27.not = icmp eq i32 %11, %2
  br i1 %exitcond27.not, label %.loopexit, label %.lr.ph.us, !llvm.loop !47

.loopexit:                                        ; preds = %._crit_edge.us, %3
  ret void
}